; ModuleID = '38/358.c'
source_filename = "38/358.c"
target datalayout = "e-m:e-p270:32:32-p271:32:32-p272:64:64-i64:64-f80:128-n8:16:32:64-S128"
target triple = "x86_64-pc-linux-gnu"

@.str = private unnamed_addr constant [3 x i8] c"%d\00", align 1
@.str.1 = private unnamed_addr constant [4 x i8] c"%lf\00", align 1
@.str.2 = private unnamed_addr constant [7 x i8] c"%.5lf\0A\00", align 1

; Function Attrs: noinline nounwind uwtable
define dso_local i32 @main(i32 %0, i8** %1) #0 {
  %3 = alloca i32, align 4
  %4 = alloca i32, align 4
  %5 = alloca i8**, align 8
  %6 = alloca i32, align 4
  %7 = alloca i32, align 4
  %8 = alloca [10000 x double], align 16
  %9 = alloca double, align 8
  %10 = alloca double, align 8
  %11 = alloca double, align 8
  %12 = alloca double, align 8
  %13 = alloca i32, align 4
  %14 = alloca i32, align 4
  store i32 0, i32* %3, align 4
  store i32 %0, i32* %4, align 4
  store i8** %1, i8*** %5, align 8
  store i32 0, i32* %7, align 4
  %15 = call i32 (i8*, ...) @__isoc99_scanf(i8* getelementptr inbounds ([3 x i8], [3 x i8]* @.str, i64 0, i64 0), i32* %6)
  br label %16

16:                                               ; preds = %77, %2
  %17 = load i32, i32* %7, align 4
  %18 = load i32, i32* %6, align 4
  %19 = icmp slt i32 %17, %18
  br i1 %19, label %20, label %87

20:                                               ; preds = %16
  store double 0.000000e+00, double* %11, align 8
  store double 0.000000e+00, double* %12, align 8
  %21 = call i32 (i8*, ...) @__isoc99_scanf(i8* getelementptr inbounds ([3 x i8], [3 x i8]* @.str, i64 0, i64 0), i32* %13)
  store i32 0, i32* %14, align 4
  br label %22

22:                                               ; preds = %31, %20
  %23 = load i32, i32* %14, align 4
  %24 = load i32, i32* %13, align 4
  %25 = icmp slt i32 %23, %24
  br i1 %25, label %26, label %34

26:                                               ; preds = %22
  %27 = load i32, i32* %14, align 4
  %28 = sext i32 %27 to i64
  %29 = getelementptr inbounds [10000 x double], [10000 x double]* %8, i64 0, i64 %28
  %30 = call i32 (i8*, ...) @__isoc99_scanf(i8* getelementptr inbounds ([4 x i8], [4 x i8]* @.str.1, i64 0, i64 0), double* %29)
  br label %31

31:                                               ; preds = %26
  %32 = load i32, i32* %14, align 4
  %33 = add nsw i32 %32, 1
  store i32 %33, i32* %14, align 4
  br label %22

34:                                               ; preds = %22
  store i32 0, i32* %14, align 4
  br label %35

35:                                               ; preds = %46, %34
  %36 = load i32, i32* %14, align 4
  %37 = load i32, i32* %13, align 4
  %38 = icmp slt i32 %36, %37
  br i1 %38, label %39, label %49

39:                                               ; preds = %35
  %40 = load double, double* %11, align 8
  %41 = load i32, i32* %14, align 4
  %42 = sext i32 %41 to i64
  %43 = getelementptr inbounds [10000 x double], [10000 x double]* %8, i64 0, i64 %42
  %44 = load double, double* %43, align 8
  %45 = fadd double %40, %44
  store double %45, double* %11, align 8
  br label %46

46:                                               ; preds = %39
  %47 = load i32, i32* %14, align 4
  %48 = add nsw i32 %47, 1
  store i32 %48, i32* %14, align 4
  br label %35

49:                                               ; preds = %35
  %50 = load double, double* %11, align 8
  %51 = load i32, i32* %13, align 4
  %52 = sitofp i32 %51 to double
  %53 = fdiv double %50, %52
  store double %53, double* %9, align 8
  store i32 0, i32* %14, align 4
  br label %54

54:                                               ; preds = %74, %49
  %55 = load i32, i32* %14, align 4
  %56 = load i32, i32* %13, align 4
  %57 = icmp slt i32 %55, %56
  br i1 %57, label %58, label %77

58:                                               ; preds = %54
  %59 = load double, double* %12, align 8
  %60 = load i32, i32* %14, align 4
  %61 = sext i32 %60 to i64
  %62 = getelementptr inbounds [10000 x double], [10000 x double]* %8, i64 0, i64 %61
  %63 = load double, double* %62, align 8
  %64 = load double, double* %9, align 8
  %65 = fsub double %63, %64
  %66 = load i32, i32* %14, align 4
  %67 = sext i32 %66 to i64
  %68 = getelementptr inbounds [10000 x double], [10000 x double]* %8, i64 0, i64 %67
  %69 = load double, double* %68, align 8
  %70 = load double, double* %9, align 8
  %71 = fsub double %69, %70
  %72 = fmul double %65, %71
  %73 = fadd double %59, %72
  store double %73, double* %12, align 8
  br label %74

74:                                               ; preds = %58
  %75 = load i32, i32* %14, align 4
  %76 = add nsw i32 %75, 1
  store i32 %76, i32* %14, align 4
  br label %54

77:                                               ; preds = %54
  %78 = load double, double* %12, align 8
  %79 = load i32, i32* %13, align 4
  %80 = sitofp i32 %79 to double
  %81 = fdiv double %78, %80
  %82 = call double @sqrt(double %81) #3
  store double %82, double* %10, align 8
  %83 = load double, double* %10, align 8
  %84 = call i32 (i8*, ...) @printf(i8* getelementptr inbounds ([7 x i8], [7 x i8]* @.str.2, i64 0, i64 0), double %83)
  %85 = load i32, i32* %7, align 4
  %86 = add nsw i32 %85, 1
  store i32 %86, i32* %7, align 4
  br label %16

87:                                               ; preds = %16
  ret i32 0
}

declare dso_local i32 @__isoc99_scanf(i8*, ...) #1

; Function Attrs: nounwind
declare dso_local double @sqrt(double) #2

declare dso_local i32 @printf(i8*, ...) #1


!llvm.module.flags = !{!0}
!llvm.ident = !{!1}

!0 = !{i32 1, !"wchar_size", i32 4}
!1 = !{!"clang version 10.0.0-4ubuntu1 "}
